target datalayout = "e-m:e-p270:32:32-p271:32:32-p272:64:64-i64:64-i128:128-f80:128-n8:16:32:64-S128"
target triple = "x86_64-pc-linux-gnu"

%struct._zval_struct = type { %union._zend_value, %union.anon.3, %union.anon.6 }
%union._zend_value = type { i64 }
%union.anon.3 = type { i32 }
%union.anon.6 = type { i32 }
%struct._zend_array = type { %struct._zend_refcounted_h, %union.anon.0, i32, %union.anon.1, i32, i32, i32, i32, i64, ptr }
%struct._zend_refcounted_h = type { i32, %union.anon }
%union.anon = type { i32 }
%union.anon.0 = type { i32 }
%union.anon.1 = type { ptr }
%struct.php_dom_xpath_callback_ns = type { %struct._zend_array, i32 }
%struct.php_dom_xpath_callbacks = type { ptr, ptr, ptr }
%struct._Bucket = type { %struct._zval_struct, i64, ptr }

; Function Attrs: nounwind uwtable
define void @php_dom_xpath_callbacks_clean_node_list(ptr noundef %0) #0 {
  %2 = alloca ptr, align 8
  store ptr %0, ptr %2, align 8
  %3 = load ptr, ptr %2, align 8
  %4 = getelementptr inbounds %struct.php_dom_xpath_callbacks, ptr %3, i32 0, i32 2
  %5 = load ptr, ptr %4, align 8
  %6 = icmp ne ptr %5, null
  br i1 %6, label %7, label %18

7:                                                ; preds = %1
  %8 = load ptr, ptr %2, align 8
  %9 = getelementptr inbounds %struct.php_dom_xpath_callbacks, ptr %8, i32 0, i32 2
  %10 = load ptr, ptr %9, align 8
  call void @zend_hash_destroy(ptr noundef %10)
  br label %11

11:                                               ; preds = %7
  %12 = load ptr, ptr %2, align 8
  %13 = getelementptr inbounds %struct.php_dom_xpath_callbacks, ptr %12, i32 0, i32 2
  %14 = load ptr, ptr %13, align 8
  call void @_efree_56(ptr noundef %14)
  br label %15

15:                                               ; preds = %11
  %16 = load ptr, ptr %2, align 8
  %17 = getelementptr inbounds %struct.php_dom_xpath_callbacks, ptr %16, i32 0, i32 2
  store ptr null, ptr %17, align 8
  br label %18

18:                                               ; preds = %15, %1
  ret void
}

; Function Attrs: nounwind uwtable
define void @php_dom_xpath_callback_ns_dtor(ptr noundef %0) #0 {
  %2 = alloca ptr, align 8
  store ptr %0, ptr %2, align 8
  %3 = load ptr, ptr %2, align 8
  %4 = getelementptr inbounds %struct.php_dom_xpath_callback_ns, ptr %3, i32 0, i32 0
  call void @zend_hash_destroy(ptr noundef %4)
  ret void
}

; Function Attrs: nounwind uwtable
define void @php_dom_xpath_callbacks_dtor(ptr noundef %0) #0 {
  %2 = alloca ptr, align 8
  %3 = alloca ptr, align 8
  %4 = alloca ptr, align 8
  %5 = alloca ptr, align 8
  %6 = alloca ptr, align 8
  %7 = alloca ptr, align 8
  %8 = alloca ptr, align 8
  store ptr %0, ptr %3, align 8
  %9 = load ptr, ptr %3, align 8
  %10 = getelementptr inbounds %struct.php_dom_xpath_callbacks, ptr %9, i32 0, i32 0
  %11 = load ptr, ptr %10, align 8
  %12 = icmp ne ptr %11, null
  br i1 %12, label %13, label %20

13:                                               ; preds = %1
  %14 = load ptr, ptr %3, align 8
  %15 = getelementptr inbounds %struct.php_dom_xpath_callbacks, ptr %14, i32 0, i32 0
  %16 = load ptr, ptr %15, align 8
  call void @php_dom_xpath_callback_ns_dtor(ptr noundef %16)
  %17 = load ptr, ptr %3, align 8
  %18 = getelementptr inbounds %struct.php_dom_xpath_callbacks, ptr %17, i32 0, i32 0
  %19 = load ptr, ptr %18, align 8
  call void @_efree(ptr noundef %19)
  br label %20

20:                                               ; preds = %13, %1
  %21 = load ptr, ptr %3, align 8
  %22 = getelementptr inbounds %struct.php_dom_xpath_callbacks, ptr %21, i32 0, i32 1
  %23 = load ptr, ptr %22, align 8
  %24 = icmp ne ptr %23, null
  br i1 %24, label %25, label %86

25:                                               ; preds = %20
  br label %26

26:                                               ; preds = %25
  %27 = load ptr, ptr %3, align 8
  %28 = getelementptr inbounds %struct.php_dom_xpath_callbacks, ptr %27, i32 0, i32 1
  %29 = load ptr, ptr %28, align 8
  store ptr %29, ptr %5, align 8
  %30 = load ptr, ptr %5, align 8
  %31 = getelementptr inbounds %struct._zend_array, ptr %30, i32 0, i32 3
  %32 = load ptr, ptr %31, align 8
  %33 = getelementptr inbounds %struct._Bucket, ptr %32, i64 0
  store ptr %33, ptr %6, align 8
  %34 = load ptr, ptr %5, align 8
  %35 = getelementptr inbounds %struct._zend_array, ptr %34, i32 0, i32 3
  %36 = load ptr, ptr %35, align 8
  %37 = load ptr, ptr %5, align 8
  %38 = getelementptr inbounds %struct._zend_array, ptr %37, i32 0, i32 4
  %39 = load i32, ptr %38, align 8
  %40 = zext i32 %39 to i64
  %41 = getelementptr inbounds %struct._Bucket, ptr %36, i64 %40
  store ptr %41, ptr %7, align 8
  %42 = load ptr, ptr %5, align 8
  %43 = getelementptr inbounds %struct._zend_array, ptr %42, i32 0, i32 1
  %44 = load i32, ptr %43, align 8
  %45 = and i32 %44, 4
  %46 = icmp ne i32 %45, 0
  %47 = xor i1 %46, true
  call void @llvm.assume(i1 %47)
  br label %48

48:                                               ; preds = %73, %26
  %49 = load ptr, ptr %6, align 8
  %50 = load ptr, ptr %7, align 8
  %51 = icmp ne ptr %49, %50
  br i1 %51, label %52, label %76

52:                                               ; preds = %48
  %53 = load ptr, ptr %6, align 8
  %54 = getelementptr inbounds %struct._Bucket, ptr %53, i32 0, i32 0
  store ptr %54, ptr %8, align 8
  %55 = load ptr, ptr %8, align 8
  store ptr %55, ptr %2, align 8
  %56 = load ptr, ptr %2, align 8
  %57 = getelementptr inbounds %struct._zval_struct, ptr %56, i32 0, i32 1
  %58 = load i8, ptr %57, align 8
  %59 = zext i8 %58 to i32
  %60 = icmp eq i32 %59, 0
  %61 = xor i1 %60, true
  %62 = xor i1 %61, true
  %63 = zext i1 %62 to i32
  %64 = sext i32 %63 to i64
  %65 = icmp ne i64 %64, 0
  br i1 %65, label %66, label %67

66:                                               ; preds = %52
  br label %73

67:                                               ; preds = %52
  %68 = load ptr, ptr %8, align 8
  %69 = getelementptr inbounds %struct._zval_struct, ptr %68, i32 0, i32 0
  %70 = load ptr, ptr %69, align 8
  store ptr %70, ptr %4, align 8
  %71 = load ptr, ptr %4, align 8
  call void @php_dom_xpath_callback_ns_dtor(ptr noundef %71)
  %72 = load ptr, ptr %4, align 8
  call void @_efree(ptr noundef %72)
  br label %73

73:                                               ; preds = %67, %66
  %74 = load ptr, ptr %6, align 8
  %75 = getelementptr inbounds %struct._Bucket, ptr %74, i32 1
  store ptr %75, ptr %6, align 8
  br label %48

76:                                               ; preds = %48
  br label %77

77:                                               ; preds = %76
  %78 = load ptr, ptr %3, align 8
  %79 = getelementptr inbounds %struct.php_dom_xpath_callbacks, ptr %78, i32 0, i32 1
  %80 = load ptr, ptr %79, align 8
  call void @zend_hash_destroy(ptr noundef %80)
  br label %81

81:                                               ; preds = %77
  %82 = load ptr, ptr %3, align 8
  %83 = getelementptr inbounds %struct.php_dom_xpath_callbacks, ptr %82, i32 0, i32 1
  %84 = load ptr, ptr %83, align 8
  call void @_efree_56(ptr noundef %84)
  br label %85

85:                                               ; preds = %81
  br label %86

86:                                               ; preds = %85, %20
  %87 = load ptr, ptr %3, align 8
  call void @php_dom_xpath_callbacks_clean_node_list(ptr noundef %87)
  ret void
}