; Function Attrs: nounwind uwtable
define void @php_dom_xpath_callbacks_dtor(ptr nocapture noundef %0) local_unnamed_addr #0 {
  %2 = load ptr, ptr %0, align 8
  %.not = icmp eq ptr %2, null
  br i1 %.not, label %5, label %3

3:                                                ; preds = %1
  tail call void @zend_hash_destroy(ptr noundef nonnull %2) #9
  %4 = load ptr, ptr %0, align 8
  tail call void @_efree(ptr noundef %4) #9
  br label %5

5:                                                ; preds = %3, %1
  %6 = getelementptr inbounds i8, ptr %0, i64 8
  %7 = load ptr, ptr %6, align 8
  %.not23 = icmp eq ptr %7, null
  br i1 %.not23, label %27, label %8

8:                                                ; preds = %5
  %9 = getelementptr inbounds i8, ptr %7, i64 16
  %10 = load ptr, ptr %9, align 8
  %11 = getelementptr inbounds i8, ptr %7, i64 24
  %12 = load i32, ptr %11, align 8
  %13 = zext i32 %12 to i64
  %14 = getelementptr inbounds %struct._Bucket, ptr %10, i64 %13
  %15 = getelementptr inbounds i8, ptr %7, i64 8
  %16 = load i32, ptr %15, align 8
  %17 = and i32 %16, 4
  %.not24 = icmp eq i32 %17, 0
  tail call void @llvm.assume(i1 %.not24)
  %.not2526 = icmp eq i32 %12, 0
  br i1 %.not2526, label %._crit_edge, label %.lr.ph

.lr.ph:                                           ; preds = %8, %23
  %.027 = phi ptr [ %24, %23 ], [ %10, %8 ]
  %18 = getelementptr inbounds i8, ptr %.027, i64 8
  %19 = load i8, ptr %18, align 8
  %20 = icmp eq i8 %19, 0
  br i1 %20, label %23, label %21

21:                                               ; preds = %.lr.ph
  %22 = load ptr, ptr %.027, align 8
  tail call void @zend_hash_destroy(ptr noundef %22) #9
  tail call void @_efree(ptr noundef %22) #9
  br label %23

23:                                               ; preds = %.lr.ph, %21
  %24 = getelementptr inbounds i8, ptr %.027, i64 32
  %.not25 = icmp eq ptr %24, %14
  br i1 %.not25, label %._crit_edge.loopexit, label %.lr.ph

._crit_edge.loopexit:                             ; preds = %23
  %.pre = load ptr, ptr %6, align 8
  br label %._crit_edge

._crit_edge:                                      ; preds = %._crit_edge.loopexit, %8
  %25 = phi ptr [ %.pre, %._crit_edge.loopexit ], [ %7, %8 ]
  tail call void @zend_hash_destroy(ptr noundef %25) #9
  %26 = load ptr, ptr %6, align 8
  tail call void @_efree_56(ptr noundef %26) #9
  br label %27

27:                                               ; preds = %._crit_edge, %5
  %28 = getelementptr inbounds i8, ptr %0, i64 16
  %29 = load ptr, ptr %28, align 8
  %.not.i = icmp eq ptr %29, null
  br i1 %.not.i, label %php_dom_xpath_callbacks_clean_node_list.exit, label %30

30:                                               ; preds = %27
  tail call void @zend_hash_destroy(ptr noundef nonnull %29) #9
  %31 = load ptr, ptr %28, align 8
  tail call void @_efree_56(ptr noundef %31) #9
  store ptr null, ptr %28, align 8
  br label %php_dom_xpath_callbacks_clean_node_list.exit

php_dom_xpath_callbacks_clean_node_list.exit:     ; preds = %27, %30
  ret void
}